target datalayout = "e-m:e-p270:32:32-p271:32:32-p272:64:64-i64:64-i128:128-f80:128-n8:16:32:64-S128"
target triple = "x86_64-unknown-linux-gnu"

%"class.google::protobuf::io::ZeroCopyInputStream" = type { ptr }
%"class.std::basic_string_view" = type { i64, ptr }
%"class.absl::lts_20230802::Cord::ChunkIterator" = type { %"class.std::basic_string_view", ptr, i64, %"class.absl::lts_20230802::cord_internal::CordRepBtreeReader" }
%"class.absl::lts_20230802::cord_internal::CordRepBtreeReader" = type { i64, %"class.absl::lts_20230802::cord_internal::CordRepBtreeNavigator" }
%"class.absl::lts_20230802::cord_internal::CordRepBtreeNavigator" = type { i32, [12 x i8], [12 x ptr] }
%"class.google::protobuf::io::CordInputStream" = type { %"class.google::protobuf::io::ZeroCopyInputStream", %"class.absl::lts_20230802::Cord::CharIterator", i64, i64, ptr, i64, i64 }
%"class.absl::lts_20230802::Cord::CharIterator" = type { %"class.absl::lts_20230802::Cord::ChunkIterator" }

; Function Attrs: mustprogress nounwind uwtable
define linkonce_odr hidden noundef ptr @_ZNK4absl12lts_2023080213cord_internal21CordRepBtreeNavigator5btreeEv(ptr noundef nonnull align 8 dereferenceable(112) %this) #4 comdat align 2 {
entry:
  %this.addr = alloca ptr, align 8
  store ptr %this, ptr %this.addr, align 8
  %this1 = load ptr, ptr %this.addr, align 8
  %height_ = getelementptr inbounds %"class.absl::lts_20230802::cord_internal::CordRepBtreeNavigator", ptr %this1, i32 0, i32 0
  %0 = load i32, ptr %height_, align 8
  %cmp = icmp sge i32 %0, 0
  br i1 %cmp, label %cond.true, label %cond.false

cond.true:                                        ; preds = %entry
  %node_ = getelementptr inbounds %"class.absl::lts_20230802::cord_internal::CordRepBtreeNavigator", ptr %this1, i32 0, i32 2
  %height_2 = getelementptr inbounds %"class.absl::lts_20230802::cord_internal::CordRepBtreeNavigator", ptr %this1, i32 0, i32 0
  %1 = load i32, ptr %height_2, align 8
  %idxprom = sext i32 %1 to i64
  %arrayidx = getelementptr inbounds [12 x ptr], ptr %node_, i64 0, i64 %idxprom
  %2 = load ptr, ptr %arrayidx, align 8
  br label %cond.end

cond.false:                                       ; preds = %entry
  br label %cond.end

cond.end:                                         ; preds = %cond.false, %cond.true
  %cond = phi ptr [ %2, %cond.true ], [ null, %cond.false ]
  ret ptr %cond
}

; Function Attrs: mustprogress nounwind uwtable
define linkonce_odr hidden void @_ZNSt17basic_string_viewIcSt11char_traitsIcEE13remove_prefixEm(ptr noundef nonnull align 8 dereferenceable(16) %this, i64 noundef %__n) #4 comdat align 2 {
entry:
  %this.addr = alloca ptr, align 8
  %__n.addr = alloca i64, align 8
  store ptr %this, ptr %this.addr, align 8
  store i64 %__n, ptr %__n.addr, align 8
  %this1 = load ptr, ptr %this.addr, align 8
  br label %do.body

do.body:                                          ; preds = %entry
  br label %do.cond

do.cond:                                          ; preds = %do.body
  br label %do.end

do.end:                                           ; preds = %do.cond
  %0 = load i64, ptr %__n.addr, align 8
  %_M_str = getelementptr inbounds %"class.std::basic_string_view", ptr %this1, i32 0, i32 1
  %1 = load ptr, ptr %_M_str, align 8
  %add.ptr = getelementptr inbounds i8, ptr %1, i64 %0
  store ptr %add.ptr, ptr %_M_str, align 8
  %2 = load i64, ptr %__n.addr, align 8
  %_M_len = getelementptr inbounds %"class.std::basic_string_view", ptr %this1, i32 0, i32 0
  %3 = load i64, ptr %_M_len, align 8
  %sub = sub i64 %3, %2
  store i64 %sub, ptr %_M_len, align 8
  ret void
}

; Function Attrs: mustprogress nounwind uwtable
define linkonce_odr hidden { i64, ptr } @_ZNK4absl12lts_202308024Cord13ChunkIteratordeEv(ptr noundef nonnull align 8 dereferenceable(152) %this) #4 comdat align 2 {
entry:
  %retval = alloca %"class.std::basic_string_view", align 8
  %this.addr = alloca ptr, align 8
  store ptr %this, ptr %this.addr, align 8
  %this1 = load ptr, ptr %this.addr, align 8
  %current_chunk_ = getelementptr inbounds %"class.absl::lts_20230802::Cord::ChunkIterator", ptr %this1, i32 0, i32 0
  call void @llvm.memcpy.p0.p0.i64(ptr align 8 %retval, ptr align 8 %current_chunk_, i64 16, i1 false)
  %0 = load { i64, ptr }, ptr %retval, align 8
  ret { i64, ptr } %0
}

; Function Attrs: mustprogress uwtable
define linkonce_odr hidden noundef zeroext i1 @_ZNK4absl12lts_2023080213cord_internal18CordRepBtreeReadercvbEv(ptr noundef nonnull align 8 dereferenceable(120) %this) #5 comdat align 2 {
entry:
  %this.addr = alloca ptr, align 8
  store ptr %this, ptr %this.addr, align 8
  %this1 = load ptr, ptr %this.addr, align 8
  %navigator_ = getelementptr inbounds %"class.absl::lts_20230802::cord_internal::CordRepBtreeReader", ptr %this1, i32 0, i32 1
  %call = call noundef ptr @_ZNK4absl12lts_2023080213cord_internal21CordRepBtreeNavigator5btreeEv(ptr noundef nonnull align 8 dereferenceable(112) %navigator_)
  %cmp = icmp ne ptr %call, null
  ret i1 %cmp
}

; Function Attrs: mustprogress nounwind uwtable
define linkonce_odr hidden void @_ZN4absl12lts_202308024Cord13ChunkIterator17RemoveChunkPrefixEm(ptr noundef nonnull align 8 dereferenceable(152) %this, i64 noundef %n) #4 comdat align 2 {
entry:
  %this.addr = alloca ptr, align 8
  %n.addr = alloca i64, align 8
  store ptr %this, ptr %this.addr, align 8
  store i64 %n, ptr %n.addr, align 8
  %this1 = load ptr, ptr %this.addr, align 8
  %current_chunk_ = getelementptr inbounds %"class.absl::lts_20230802::Cord::ChunkIterator", ptr %this1, i32 0, i32 0
  %0 = load i64, ptr %n.addr, align 8
  call void @_ZNSt17basic_string_viewIcSt11char_traitsIcEE13remove_prefixEm(ptr noundef nonnull align 8 dereferenceable(16) %current_chunk_, i64 noundef %0) #3
  %1 = load i64, ptr %n.addr, align 8
  %bytes_remaining_ = getelementptr inbounds %"class.absl::lts_20230802::Cord::ChunkIterator", ptr %this1, i32 0, i32 2
  %2 = load i64, ptr %bytes_remaining_, align 8
  %sub = sub i64 %2, %1
  store i64 %sub, ptr %bytes_remaining_, align 8
  ret void
}

; Function Attrs: mustprogress nounwind uwtable
define linkonce_odr hidden noundef i64 @_ZNKSt17basic_string_viewIcSt11char_traitsIcEE4sizeEv(ptr noundef nonnull align 8 dereferenceable(16) %this) #4 comdat align 2 {
entry:
  %this.addr = alloca ptr, align 8
  store ptr %this, ptr %this.addr, align 8
  %this1 = load ptr, ptr %this.addr, align 8
  %_M_len = getelementptr inbounds %"class.std::basic_string_view", ptr %this1, i32 0, i32 0
  %0 = load i64, ptr %_M_len, align 8
  ret i64 %0
}

; Function Attrs: mustprogress nounwind uwtable
define linkonce_odr hidden noundef ptr @_ZNKSt17basic_string_viewIcSt11char_traitsIcEE4dataEv(ptr noundef nonnull align 8 dereferenceable(16) %this) #4 comdat align 2 {
entry:
  %this.addr = alloca ptr, align 8
  store ptr %this, ptr %this.addr, align 8
  %this1 = load ptr, ptr %this.addr, align 8
  %_M_str = getelementptr inbounds %"class.std::basic_string_view", ptr %this1, i32 0, i32 1
  %0 = load ptr, ptr %_M_str, align 8
  ret ptr %0
}

; Function Attrs: mustprogress nounwind uwtable
define linkonce_odr hidden { i64, ptr } @_ZN4absl12lts_202308024Cord14ChunkRemainingERKNS1_12CharIteratorE(ptr noundef nonnull align 8 dereferenceable(152) %it) #4 comdat align 2 {
entry:
  %retval = alloca %"class.std::basic_string_view", align 8
  %it.addr = alloca ptr, align 8
  store ptr %it, ptr %it.addr, align 8
  %0 = load ptr, ptr %it.addr, align 8
  %chunk_iterator_ = getelementptr inbounds %"class.absl::lts_20230802::Cord::CharIterator", ptr %0, i32 0, i32 0
  %call = call { i64, ptr } @_ZNK4absl12lts_202308024Cord13ChunkIteratordeEv(ptr noundef nonnull align 8 dereferenceable(152) %chunk_iterator_)
  %1 = getelementptr inbounds { i64, ptr }, ptr %retval, i32 0, i32 0
  %2 = extractvalue { i64, ptr } %call, 0
  store i64 %2, ptr %1, align 8
  %3 = getelementptr inbounds { i64, ptr }, ptr %retval, i32 0, i32 1
  %4 = extractvalue { i64, ptr } %call, 1
  store ptr %4, ptr %3, align 8
  %5 = load { i64, ptr }, ptr %retval, align 8
  ret { i64, ptr } %5
}

; Function Attrs: mustprogress uwtable
define linkonce_odr hidden void @_ZN4absl12lts_202308024Cord13ChunkIterator12AdvanceBytesEm(ptr noundef nonnull align 8 dereferenceable(152) %this, i64 noundef %n) #5 comdat align 2 {
entry:
  %this.addr = alloca ptr, align 8
  %n.addr = alloca i64, align 8
  store ptr %this, ptr %this.addr, align 8
  store i64 %n, ptr %n.addr, align 8
  %this1 = load ptr, ptr %this.addr, align 8
  %0 = load i64, ptr %n.addr, align 8
  %current_chunk_ = getelementptr inbounds %"class.absl::lts_20230802::Cord::ChunkIterator", ptr %this1, i32 0, i32 0
  %call = call noundef i64 @_ZNKSt17basic_string_viewIcSt11char_traitsIcEE4sizeEv(ptr noundef nonnull align 8 dereferenceable(16) %current_chunk_) #3
  %cmp = icmp ult i64 %0, %call
  br i1 %cmp, label %if.then, label %if.else

if.then:                                          ; preds = %entry
  %1 = load i64, ptr %n.addr, align 8
  call void @_ZN4absl12lts_202308024Cord13ChunkIterator17RemoveChunkPrefixEm(ptr noundef nonnull align 8 dereferenceable(152) %this1, i64 noundef %1)
  br label %if.end8

if.else:                                          ; preds = %entry
  %2 = load i64, ptr %n.addr, align 8
  %cmp2 = icmp ne i64 %2, 0
  br i1 %cmp2, label %if.then3, label %if.end7

if.then3:                                         ; preds = %if.else
  %btree_reader_ = getelementptr inbounds %"class.absl::lts_20230802::Cord::ChunkIterator", ptr %this1, i32 0, i32 3
  %call4 = call noundef zeroext i1 @_ZNK4absl12lts_2023080213cord_internal18CordRepBtreeReadercvbEv(ptr noundef nonnull align 8 dereferenceable(120) %btree_reader_)
  br i1 %call4, label %if.then5, label %if.else6

if.then5:                                         ; preds = %if.then3
  %3 = load i64, ptr %n.addr, align 8
  call void @_ZN4absl12lts_202308024Cord13ChunkIterator17AdvanceBytesBtreeEm(ptr noundef nonnull align 8 dereferenceable(152) %this1, i64 noundef %3)
  br label %if.end

if.else6:                                         ; preds = %if.then3
  %bytes_remaining_ = getelementptr inbounds %"class.absl::lts_20230802::Cord::ChunkIterator", ptr %this1, i32 0, i32 2
  store i64 0, ptr %bytes_remaining_, align 8
  br label %if.end

if.end:                                           ; preds = %if.else6, %if.then5
  br label %if.end7

if.end7:                                          ; preds = %if.end, %if.else
  br label %if.end8

if.end8:                                          ; preds = %if.end7, %if.then
  ret void
}

; Function Attrs: mustprogress uwtable
define noundef zeroext i1 @_ZN6google8protobuf2io15CordInputStream13LoadChunkDataEv(ptr noundef nonnull align 8 dereferenceable(200) %this) #5 align 2 {
entry:
  %retval = alloca i1, align 1
  %this.addr = alloca ptr, align 8
  %sv = alloca %"class.std::basic_string_view", align 8
  store ptr %this, ptr %this.addr, align 8
  %this1 = load ptr, ptr %this.addr, align 8
  %bytes_remaining_ = getelementptr inbounds %"class.google::protobuf::io::CordInputStream", ptr %this1, i32 0, i32 3
  %0 = load i64, ptr %bytes_remaining_, align 8
  %cmp = icmp ne i64 %0, 0
  br i1 %cmp, label %if.then, label %if.end

if.then:                                          ; preds = %entry
  %it_ = getelementptr inbounds %"class.google::protobuf::io::CordInputStream", ptr %this1, i32 0, i32 1
  %call = call { i64, ptr } @_ZN4absl12lts_202308024Cord14ChunkRemainingERKNS1_12CharIteratorE(ptr noundef nonnull align 8 dereferenceable(152) %it_)
  %1 = getelementptr inbounds { i64, ptr }, ptr %sv, i32 0, i32 0
  %2 = extractvalue { i64, ptr } %call, 0
  store i64 %2, ptr %1, align 8
  %3 = getelementptr inbounds { i64, ptr }, ptr %sv, i32 0, i32 1
  %4 = extractvalue { i64, ptr } %call, 1
  store ptr %4, ptr %3, align 8
  %call2 = call noundef ptr @_ZNKSt17basic_string_viewIcSt11char_traitsIcEE4dataEv(ptr noundef nonnull align 8 dereferenceable(16) %sv) #3
  %data_ = getelementptr inbounds %"class.google::protobuf::io::CordInputStream", ptr %this1, i32 0, i32 4
  store ptr %call2, ptr %data_, align 8
  %call3 = call noundef i64 @_ZNKSt17basic_string_viewIcSt11char_traitsIcEE4sizeEv(ptr noundef nonnull align 8 dereferenceable(16) %sv) #3
  %available_ = getelementptr inbounds %"class.google::protobuf::io::CordInputStream", ptr %this1, i32 0, i32 6
  store i64 %call3, ptr %available_, align 8
  %size_ = getelementptr inbounds %"class.google::protobuf::io::CordInputStream", ptr %this1, i32 0, i32 5
  store i64 %call3, ptr %size_, align 8
  store i1 true, ptr %retval, align 1
  br label %return

if.end:                                           ; preds = %entry
  %available_4 = getelementptr inbounds %"class.google::protobuf::io::CordInputStream", ptr %this1, i32 0, i32 6
  store i64 0, ptr %available_4, align 8
  %size_5 = getelementptr inbounds %"class.google::protobuf::io::CordInputStream", ptr %this1, i32 0, i32 5
  store i64 0, ptr %size_5, align 8
  store i1 false, ptr %retval, align 1
  br label %return

return:                                           ; preds = %if.end, %if.then
  %5 = load i1, ptr %retval, align 1
  ret i1 %5
}

; Function Attrs: mustprogress uwtable
define linkonce_odr hidden void @_ZN4absl12lts_202308024Cord7AdvanceEPNS1_12CharIteratorEm(ptr noundef %it, i64 noundef %n_bytes) #5 comdat align 2 {
entry:
  %it.addr = alloca ptr, align 8
  %n_bytes.addr = alloca i64, align 8
  store ptr %it, ptr %it.addr, align 8
  store i64 %n_bytes, ptr %n_bytes.addr, align 8
  %0 = load ptr, ptr %it.addr, align 8
  %chunk_iterator_ = getelementptr inbounds %"class.absl::lts_20230802::Cord::CharIterator", ptr %0, i32 0, i32 0
  %1 = load i64, ptr %n_bytes.addr, align 8
  call void @_ZN4absl12lts_202308024Cord13ChunkIterator12AdvanceBytesEm(ptr noundef nonnull align 8 dereferenceable(152) %chunk_iterator_, i64 noundef %1)
  ret void
}

; Function Attrs: mustprogress uwtable
define noundef zeroext i1 @_ZN6google8protobuf2io15CordInputStream9NextChunkEm(ptr noundef nonnull align 8 dereferenceable(200) %this, i64 noundef %skip) #5 align 2 {
entry:
  %retval = alloca i1, align 1
  %this.addr = alloca ptr, align 8
  %skip.addr = alloca i64, align 8
  %distance = alloca i64, align 8
  store ptr %this, ptr %this.addr, align 8
  store i64 %skip, ptr %skip.addr, align 8
  %this1 = load ptr, ptr %this.addr, align 8
  %size_ = getelementptr inbounds %"class.google::protobuf::io::CordInputStream", ptr %this1, i32 0, i32 5
  %0 = load i64, ptr %size_, align 8
  %cmp = icmp eq i64 %0, 0
  br i1 %cmp, label %if.then, label %if.end

if.then:                                          ; preds = %entry
  store i1 false, ptr %retval, align 1
  br label %return

if.end:                                           ; preds = %entry
  %size_2 = getelementptr inbounds %"class.google::protobuf::io::CordInputStream", ptr %this1, i32 0, i32 5
  %1 = load i64, ptr %size_2, align 8
  %available_ = getelementptr inbounds %"class.google::protobuf::io::CordInputStream", ptr %this1, i32 0, i32 6
  %2 = load i64, ptr %available_, align 8
  %sub = sub i64 %1, %2
  %3 = load i64, ptr %skip.addr, align 8
  %add = add i64 %sub, %3
  store i64 %add, ptr %distance, align 8
  %it_ = getelementptr inbounds %"class.google::protobuf::io::CordInputStream", ptr %this1, i32 0, i32 1
  %4 = load i64, ptr %distance, align 8
  call void @_ZN4absl12lts_202308024Cord7AdvanceEPNS1_12CharIteratorEm(ptr noundef %it_, i64 noundef %4)
  %5 = load i64, ptr %skip.addr, align 8
  %bytes_remaining_ = getelementptr inbounds %"class.google::protobuf::io::CordInputStream", ptr %this1, i32 0, i32 3
  %6 = load i64, ptr %bytes_remaining_, align 8
  %sub3 = sub i64 %6, %5
  store i64 %sub3, ptr %bytes_remaining_, align 8
  %call = call noundef zeroext i1 @_ZN6google8protobuf2io15CordInputStream13LoadChunkDataEv(ptr noundef nonnull align 8 dereferenceable(200) %this1)
  store i1 %call, ptr %retval, align 1
  br label %return

return:                                           ; preds = %if.end, %if.then
  %7 = load i1, ptr %retval, align 1
  ret i1 %7
}

; Function Attrs: mustprogress uwtable
define noundef zeroext i1 @_ZN6google8protobuf2io15CordInputStream4NextEPPKvPi(ptr noundef nonnull align 8 dereferenceable(200) %this, ptr noundef %data, ptr noundef %size) unnamed_addr #5 align 2 {
entry:
  %retval = alloca i1, align 1
  %this.addr = alloca ptr, align 8
  %data.addr = alloca ptr, align 8
  %size.addr = alloca ptr, align 8
  store ptr %this, ptr %this.addr, align 8
  store ptr %data, ptr %data.addr, align 8
  store ptr %size, ptr %size.addr, align 8
  %this1 = load ptr, ptr %this.addr, align 8
  %available_ = getelementptr inbounds %"class.google::protobuf::io::CordInputStream", ptr %this1, i32 0, i32 6
  %0 = load i64, ptr %available_, align 8
  %cmp = icmp ugt i64 %0, 0
  br i1 %cmp, label %if.then, label %lor.lhs.false

lor.lhs.false:                                    ; preds = %entry
  %call = call noundef zeroext i1 @_ZN6google8protobuf2io15CordInputStream9NextChunkEm(ptr noundef nonnull align 8 dereferenceable(200) %this1, i64 noundef 0)
  br i1 %call, label %if.then, label %if.end

if.then:                                          ; preds = %lor.lhs.false, %entry
  %data_ = getelementptr inbounds %"class.google::protobuf::io::CordInputStream", ptr %this1, i32 0, i32 4
  %1 = load ptr, ptr %data_, align 8
  %size_ = getelementptr inbounds %"class.google::protobuf::io::CordInputStream", ptr %this1, i32 0, i32 5
  %2 = load i64, ptr %size_, align 8
  %add.ptr = getelementptr inbounds i8, ptr %1, i64 %2
  %available_2 = getelementptr inbounds %"class.google::protobuf::io::CordInputStream", ptr %this1, i32 0, i32 6
  %3 = load i64, ptr %available_2, align 8
  %idx.neg = sub i64 0, %3
  %add.ptr3 = getelementptr inbounds i8, ptr %add.ptr, i64 %idx.neg
  %4 = load ptr, ptr %data.addr, align 8
  store ptr %add.ptr3, ptr %4, align 8
  %available_4 = getelementptr inbounds %"class.google::protobuf::io::CordInputStream", ptr %this1, i32 0, i32 6
  %5 = load i64, ptr %available_4, align 8
  %conv = trunc i64 %5 to i32
  %6 = load ptr, ptr %size.addr, align 8
  store i32 %conv, ptr %6, align 4
  %available_5 = getelementptr inbounds %"class.google::protobuf::io::CordInputStream", ptr %this1, i32 0, i32 6
  %7 = load i64, ptr %available_5, align 8
  %bytes_remaining_ = getelementptr inbounds %"class.google::protobuf::io::CordInputStream", ptr %this1, i32 0, i32 3
  %8 = load i64, ptr %bytes_remaining_, align 8
  %sub = sub i64 %8, %7
  store i64 %sub, ptr %bytes_remaining_, align 8
  %available_6 = getelementptr inbounds %"class.google::protobuf::io::CordInputStream", ptr %this1, i32 0, i32 6
  store i64 0, ptr %available_6, align 8
  store i1 true, ptr %retval, align 1
  br label %return

if.end:                                           ; preds = %lor.lhs.false
  store i1 false, ptr %retval, align 1
  br label %return

return:                                           ; preds = %if.end, %if.then
  %9 = load i1, ptr %retval, align 1
  ret i1 %9
}