; Function Attrs: mustprogress uwtable
define noundef zeroext i1 @_ZN6google8protobuf2io15CordInputStream4NextEPPKvPi(ptr noundef nonnull align 8 dereferenceable(200) %this, ptr nocapture noundef writeonly %data, ptr nocapture noundef writeonly %size) unnamed_addr #5 align 2 {
entry:
  %available_ = getelementptr inbounds i8, ptr %this, i64 192
  %0 = load i64, ptr %available_, align 8
  %cmp.not = icmp eq i64 %0, 0
  br i1 %cmp.not, label %lor.lhs.false, label %entry.if.then_crit_edge

entry.if.then_crit_edge:                          ; preds = %entry
  %data_.phi.trans.insert = getelementptr inbounds i8, ptr %this, i64 176
  %.pre = load ptr, ptr %data_.phi.trans.insert, align 8
  %size_.phi.trans.insert = getelementptr inbounds i8, ptr %this, i64 184
  %.pre4 = load i64, ptr %size_.phi.trans.insert, align 8
  br label %if.then

lor.lhs.false:                                    ; preds = %entry
  %size_.i = getelementptr inbounds i8, ptr %this, i64 184
  %1 = load i64, ptr %size_.i, align 8
  %cmp.i = icmp eq i64 %1, 0
  br i1 %cmp.i, label %return, label %if.end.i

if.end.i:                                         ; preds = %lor.lhs.false
  %it_.i = getelementptr inbounds i8, ptr %this, i64 8
  %2 = load i64, ptr %it_.i, align 8
  %cmp.i.i.i = icmp ugt i64 %2, %1
  br i1 %cmp.i.i.i, label %if.then.i.i.i, label %if.then3.i.i.i

if.then.i.i.i:                                    ; preds = %if.end.i
  %_M_str.i.i.i.i.i = getelementptr inbounds i8, ptr %this, i64 16
  %3 = load ptr, ptr %_M_str.i.i.i.i.i, align 8
  %add.ptr.i.i.i.i.i = getelementptr inbounds i8, ptr %3, i64 %1
  store ptr %add.ptr.i.i.i.i.i, ptr %_M_str.i.i.i.i.i, align 8
  %sub.i.i.i.i.i = sub i64 %2, %1
  store i64 %sub.i.i.i.i.i, ptr %it_.i, align 8
  %bytes_remaining_.i.i.i.i = getelementptr inbounds i8, ptr %this, i64 32
  %4 = load i64, ptr %bytes_remaining_.i.i.i.i, align 8
  %sub.i.i.i.i = sub i64 %4, %1
  store i64 %sub.i.i.i.i, ptr %bytes_remaining_.i.i.i.i, align 8
  br label %_ZN4absl12lts_202308024Cord7AdvanceEPNS1_12CharIteratorEm.exit.i

if.then3.i.i.i:                                   ; preds = %if.end.i
  %navigator_.i.i.i.i = getelementptr inbounds i8, ptr %this, i64 48
  %5 = load i32, ptr %navigator_.i.i.i.i, align 8
  %cmp.i.i.i.i.i = icmp sgt i32 %5, -1
  br i1 %cmp.i.i.i.i.i, label %_ZNK4absl12lts_2023080213cord_internal18CordRepBtreeReadercvbEv.exit.i.i.i, label %if.else6.i.i.i

_ZNK4absl12lts_2023080213cord_internal18CordRepBtreeReadercvbEv.exit.i.i.i: ; preds = %if.then3.i.i.i
  %node_.i.i.i.i.i = getelementptr inbounds i8, ptr %this, i64 64
  %idxprom.i.i.i.i.i = zext nneg i32 %5 to i64
  %arrayidx.i.i.i.i.i = getelementptr inbounds [12 x ptr], ptr %node_.i.i.i.i.i, i64 0, i64 %idxprom.i.i.i.i.i
  %6 = load ptr, ptr %arrayidx.i.i.i.i.i, align 8
  %.not.i.i.i = icmp eq ptr %6, null
  br i1 %.not.i.i.i, label %if.else6.i.i.i, label %if.then5.i.i.i

if.then5.i.i.i:                                   ; preds = %_ZNK4absl12lts_2023080213cord_internal18CordRepBtreeReadercvbEv.exit.i.i.i
  tail call void @_ZN4absl12lts_202308024Cord13ChunkIterator17AdvanceBytesBtreeEm(ptr noundef nonnull align 8 dereferenceable(152) %it_.i, i64 noundef %1)
  br label %_ZN4absl12lts_202308024Cord7AdvanceEPNS1_12CharIteratorEm.exit.i

if.else6.i.i.i:                                   ; preds = %_ZNK4absl12lts_2023080213cord_internal18CordRepBtreeReadercvbEv.exit.i.i.i, %if.then3.i.i.i
  %bytes_remaining_.i.i.i = getelementptr inbounds i8, ptr %this, i64 32
  store i64 0, ptr %bytes_remaining_.i.i.i, align 8
  br label %_ZN4absl12lts_202308024Cord7AdvanceEPNS1_12CharIteratorEm.exit.i

_ZN4absl12lts_202308024Cord7AdvanceEPNS1_12CharIteratorEm.exit.i: ; preds = %if.else6.i.i.i, %if.then5.i.i.i, %if.then.i.i.i
  %bytes_remaining_.i = getelementptr inbounds i8, ptr %this, i64 168
  %7 = load i64, ptr %bytes_remaining_.i, align 8
  %cmp.not.i.i.not = icmp eq i64 %7, 0
  br i1 %cmp.not.i.i.not, label %_ZN6google8protobuf2io15CordInputStream9NextChunkEm.exit, label %_ZN6google8protobuf2io15CordInputStream9NextChunkEm.exit.thread2

_ZN6google8protobuf2io15CordInputStream9NextChunkEm.exit.thread2: ; preds = %_ZN4absl12lts_202308024Cord7AdvanceEPNS1_12CharIteratorEm.exit.i
  %retval.sroa.0.0.copyload.i.i.i.i = load i64, ptr %it_.i, align 8
  %retval.sroa.2.0.current_chunk_.sroa_idx.i.i.i.i = getelementptr inbounds i8, ptr %this, i64 16
  %retval.sroa.2.0.copyload.i.i.i.i = load ptr, ptr %retval.sroa.2.0.current_chunk_.sroa_idx.i.i.i.i, align 8
  %data_.i.i = getelementptr inbounds i8, ptr %this, i64 176
  store ptr %retval.sroa.2.0.copyload.i.i.i.i, ptr %data_.i.i, align 8
  store i64 %retval.sroa.0.0.copyload.i.i.i.i, ptr %available_, align 8
  store i64 %retval.sroa.0.0.copyload.i.i.i.i, ptr %size_.i, align 8
  br label %if.then

_ZN6google8protobuf2io15CordInputStream9NextChunkEm.exit: ; preds = %_ZN4absl12lts_202308024Cord7AdvanceEPNS1_12CharIteratorEm.exit.i
  tail call void @llvm.memset.p0.i64(ptr noundef nonnull align 8 dereferenceable(16) %size_.i, i8 0, i64 16, i1 false)
  br label %return

if.then:                                          ; preds = %entry.if.then_crit_edge, %_ZN6google8protobuf2io15CordInputStream9NextChunkEm.exit.thread2
  %8 = phi i64 [ %0, %entry.if.then_crit_edge ], [ %retval.sroa.0.0.copyload.i.i.i.i, %_ZN6google8protobuf2io15CordInputStream9NextChunkEm.exit.thread2 ]
  %9 = phi i64 [ %.pre4, %entry.if.then_crit_edge ], [ %retval.sroa.0.0.copyload.i.i.i.i, %_ZN6google8protobuf2io15CordInputStream9NextChunkEm.exit.thread2 ]
  %10 = phi ptr [ %.pre, %entry.if.then_crit_edge ], [ %retval.sroa.2.0.copyload.i.i.i.i, %_ZN6google8protobuf2io15CordInputStream9NextChunkEm.exit.thread2 ]
  %add.ptr = getelementptr inbounds i8, ptr %10, i64 %9
  %idx.neg = sub i64 0, %8
  %add.ptr3 = getelementptr inbounds i8, ptr %add.ptr, i64 %idx.neg
  store ptr %add.ptr3, ptr %data, align 8
  %11 = load i64, ptr %available_, align 8
  %conv = trunc i64 %11 to i32
  store i32 %conv, ptr %size, align 4
  %12 = load i64, ptr %available_, align 8
  %bytes_remaining_ = getelementptr inbounds i8, ptr %this, i64 168
  %13 = load i64, ptr %bytes_remaining_, align 8
  %sub = sub i64 %13, %12
  store i64 %sub, ptr %bytes_remaining_, align 8
  store i64 0, ptr %available_, align 8
  br label %return

return:                                           ; preds = %lor.lhs.false, %_ZN6google8protobuf2io15CordInputStream9NextChunkEm.exit, %if.then
  %retval.0 = phi i1 [ true, %if.then ], [ false, %_ZN6google8protobuf2io15CordInputStream9NextChunkEm.exit ], [ false, %lor.lhs.false ]
  ret i1 %retval.0
}